target datalayout = "e-m:e-p270:32:32-p271:32:32-p272:64:64-i64:64-i128:128-f80:128-n8:16:32:64-S128"
target triple = "x86_64-pc-linux-gnu"

%class.TestData = type { ptr, ptr, ptr, ptr, ptr, i32, i32, i32, i32 }
%class.RBTestData = type { %class.TestData, ptr, ptr, ptr, ptr }

@_ZTV8TestData = unnamed_addr constant { [7 x ptr] } { [7 x ptr] [ptr null, ptr @_ZTI8TestData, ptr @_ZN8TestDataD1Ev, ptr @_ZN8TestDataD0Ev, ptr @__cxa_pure_virtual, ptr @__cxa_pure_virtual, ptr @__cxa_pure_virtual] }, align 8

; Function Attrs: mustprogress nounwind uwtable
define void @_ZN8TestDataC2EPKc(ptr noundef nonnull align 8 dereferenceable(56) %0, ptr noundef %1) unnamed_addr #0 align 2 {
  %3 = alloca ptr, align 8
  %4 = alloca ptr, align 8
  store ptr %0, ptr %3, align 8, !tbaa !3
  store ptr %1, ptr %4, align 8, !tbaa !8
  %5 = load ptr, ptr %3, align 8
  store ptr getelementptr inbounds inrange(-16, 40) ({ [7 x ptr] }, ptr @_ZTV8TestData, i32 0, i32 0, i32 2), ptr %5, align 8, !tbaa !10
  %6 = getelementptr inbounds nuw %class.TestData, ptr %5, i32 0, i32 1
  %7 = load ptr, ptr %4, align 8, !tbaa !8
  store ptr %7, ptr %6, align 8, !tbaa !12
  %8 = getelementptr inbounds nuw %class.TestData, ptr %5, i32 0, i32 2
  store ptr null, ptr %8, align 8, !tbaa !16
  %9 = getelementptr inbounds nuw %class.TestData, ptr %5, i32 0, i32 3
  store ptr null, ptr %9, align 8, !tbaa !17
  %10 = getelementptr inbounds nuw %class.TestData, ptr %5, i32 0, i32 4
  store ptr null, ptr %10, align 8, !tbaa !18
  %11 = getelementptr inbounds nuw %class.TestData, ptr %5, i32 0, i32 5
  store i32 0, ptr %11, align 8, !tbaa !19
  %12 = getelementptr inbounds nuw %class.TestData, ptr %5, i32 0, i32 6
  store i32 0, ptr %12, align 4, !tbaa !20
  %13 = getelementptr inbounds nuw %class.TestData, ptr %5, i32 0, i32 7
  store i32 0, ptr %13, align 8, !tbaa !21
  %14 = getelementptr inbounds nuw %class.TestData, ptr %5, i32 0, i32 8
  store i32 0, ptr %14, align 4, !tbaa !22
  ret void
}

; Function Attrs: mustprogress nounwind uwtable
define void @_ZN10RBTestDataC2EPKc(ptr noundef nonnull align 8 dereferenceable(88) %0, ptr noundef %1) unnamed_addr #0 align 2 {
  %3 = alloca ptr, align 8
  %4 = alloca ptr, align 8
  store ptr %0, ptr %3, align 8, !tbaa !23
  store ptr %1, ptr %4, align 8, !tbaa !8
  %5 = load ptr, ptr %3, align 8
  %6 = load ptr, ptr %4, align 8, !tbaa !8
  call void @_ZN8TestDataC2EPKc(ptr noundef nonnull align 8 dereferenceable(56) %5, ptr noundef %6)
  store ptr getelementptr inbounds inrange(-16, 40) ({ [7 x ptr] }, ptr @_ZTV10RBTestData, i32 0, i32 0, i32 2), ptr %5, align 8, !tbaa !10
  %7 = getelementptr inbounds nuw %class.RBTestData, ptr %5, i32 0, i32 1
  store ptr null, ptr %7, align 8, !tbaa !25
  %8 = getelementptr inbounds nuw %class.RBTestData, ptr %5, i32 0, i32 2
  store ptr null, ptr %8, align 8, !tbaa !28
  %9 = getelementptr inbounds nuw %class.RBTestData, ptr %5, i32 0, i32 3
  store ptr null, ptr %9, align 8, !tbaa !29
  %10 = getelementptr inbounds nuw %class.RBTestData, ptr %5, i32 0, i32 4
  store ptr null, ptr %10, align 8, !tbaa !30
  ret void
}